Certificate:
    Data:
        Version: 1 (0x0)
        Serial Number: 20 (0x14)
        Signature Algorithm: md5WithRSAEncryption
        Issuer: C=SG, ST=SG, L=SG, O=SUTD, OU=ISTD, CN=Jie Yang/emailAddress=jie_yang@mymail.sutd.edu.sg
        Validity
            Not Before: Apr  9 09:40:29 2016 GMT
            Not After : Apr  9 09:40:29 2017 GMT
        Subject: C=SG, ST=Singapore, L=Singapore, O=SUTD, OU=ISTD, CN=ISTD/emailAddress=ryan_lim@mymail.sutd.edu.sg
        Subject Public Key Info:
            Public Key Algorithm: rsaEncryption
            RSA Public Key: (1024 bit)
                Modulus (1024 bit):
                    00:a3:44:06:88:38:98:db:56:18:58:98:d6:37:ba:
                    96:44:18:21:1b:4b:e3:09:cb:28:4c:5b:06:51:6b:
                    ef:60:41:3e:50:82:a9:b2:35:15:30:68:12:1a:9a:
                    99:00:05:83:2b:a3:19:b0:d5:03:72:70:49:d4:d8:
                    e2:d7:1a:25:4e:64:6f:c4:9a:df:95:a2:31:41:fb:
                    9f:3a:36:29:fd:93:69:e1:3c:33:ee:ee:e7:54:ae:
                    c8:cc:b7:e6:c9:ef:b8:c3:04:23:a4:14:b6:0c:41:
                    19:9e:31:8a:3a:f9:41:b6:6b:c7:8e:d1:a7:07:14:
                    8a:d9:05:28:7b:83:f4:6a:df
                Exponent: 65537 (0x10001)
    Signature Algorithm: md5WithRSAEncryption
        45:fa:b6:af:e0:15:b8:36:c9:9f:2e:3b:c7:8f:90:99:df:57:
        05:ea:67:dc:cf:01:be:70:93:21:bd:b5:87:7f:ef:9a:95:62:
        12:ed:d8:69:dc:b8:e9:53:62:52:9b:11:8d:a8:21:73:ab:87:
        db:3d:ed:f0:e5:75:bb:3d:59:f3:6c:84:e1:01:72:a8:d1:7e:
        3c:8f:60:7c:ff:64:28:30:57:22:4d:3c:6d:d4:11:6a:d0:0b:
        fc:bc:b6:91:b1:58:98:3a:a0:c9:d5:9c:42:7b:31:62:9b:5f:
        dd:54:04:9d:73:fc:1b:53:2a:64:21:c8:b3:80:47:fb:89:b5:
        17:6e
-----BEGIN CERTIFICATE-----
MIICgzCCAewCARQwDQYJKoZIhvcNAQEEBQAwgYQxCzAJBgNVBAYTAlNHMQswCQYD
VQQIEwJTRzELMAkGA1UEBxMCU0cxDTALBgNVBAoTBFNVVEQxDTALBgNVBAsTBElT
VEQxETAPBgNVBAMTCEppZSBZYW5nMSowKAYJKoZIhvcNAQkBFhtqaWVfeWFuZ0Bt
eW1haWwuc3V0ZC5lZHUuc2cwHhcNMTYwNDA5MDk0MDI5WhcNMTcwNDA5MDk0MDI5
WjCBjjELMAkGA1UEBhMCU0cxEjAQBgNVBAgMCVNpbmdhcG9yZTESMBAGA1UEBwwJ
U2luZ2Fwb3JlMQ0wCwYDVQQKDARTVVREMQ0wCwYDVQQLDARJU1REMQ0wCwYDVQQD
DARJU1REMSowKAYJKoZIhvcNAQkBFhtyeWFuX2xpbUBteW1haWwuc3V0ZC5lZHUu
c2cwgZ8wDQYJKoZIhvcNAQEBBQADgY0AMIGJAoGBAKNEBog4mNtWGFiY1je6lkQY
IRtL4wnLKExbBlFr72BBPlCCqbI1FTBoEhqamQAFgyujGbDVA3JwSdTY4tcaJU5k
b8Sa35WiMUH7nzo2Kf2TaeE8M+7u51SuyMy35snvuMMEI6QUtgxBGZ4xijr5QbZr
x47RpwcUitkFKHuD9GrfAgMBAAEwDQYJKoZIhvcNAQEEBQADgYEARfq2r+AVuDbJ
ny47x4+Qmd9XBepn3M8BvnCTIb21h3/vmpViEu3Yady46VNiUpsRjaghc6uH2z3t
8OV1uz1Z82yE4QFyqNF+PI9gfP9kKDBXIk08bdQRatAL/Ly2kbFYmDqgydWcQnsx
Yptf3VQEnXP8G1MqZCHIs4BH+4m1F24=
-----END CERTIFICATE-----
